Certificate:
    Data:
        Version: 3 (0x2)
        Serial Number:
            f2:13:24:b8:18:cb:9c:9a:02:5e:25:99:5d:83:b8:0f
    Signature Algorithm: sha256WithRSAEncryption
        Issuer: CN=vpn.adpss.server
        Validity
            Not Before: Feb 22 21:20:16 2021 GMT
            Not After : May 28 21:20:16 2023 GMT
        Subject: CN=vpn.adpss.network
        Subject Public Key Info:
            Public Key Algorithm: rsaEncryption
                Public-Key: (2048 bit)
                Modulus:
                    00:c7:be:3a:22:96:67:b3:c9:c0:a4:91:59:50:66:
                    42:ab:ab:c1:1c:d3:65:c6:47:6e:1a:d2:36:4a:13:
                    a3:f8:20:ee:24:67:05:54:b1:f9:4b:98:ab:dc:e4:
                    04:76:23:0d:84:d8:ca:96:de:0d:0c:f3:ce:55:af:
                    c0:07:e5:8c:d3:eb:cd:22:ad:61:5f:72:0c:8a:bf:
                    68:a5:df:fa:4d:4e:00:f8:54:b9:fe:68:9b:09:1c:
                    f0:06:bf:d4:2c:55:80:85:17:fd:92:bb:cf:b5:e5:
                    4d:62:79:6d:d0:f3:25:b9:9e:1f:8e:20:64:26:36:
                    6a:41:5d:5c:7a:38:fd:8d:39:36:f4:95:37:e1:95:
                    3e:f9:a9:a6:8b:77:ab:4e:0d:30:b2:83:f8:c6:8d:
                    ec:94:a8:81:23:1f:50:79:17:0e:47:66:2f:66:63:
                    93:e7:6b:a0:d6:fe:96:e6:6d:9e:08:ea:fd:f1:a4:
                    f9:8d:1f:08:f9:cc:45:10:2d:12:99:9e:a0:35:21:
                    c1:27:4b:b0:f0:55:e5:39:08:06:8c:85:4f:29:d4:
                    27:cd:72:da:b7:d4:27:32:a5:e4:4e:64:29:e9:8e:
                    5f:2f:4e:7e:fa:75:4f:6b:f7:7b:b5:99:8d:3c:c0:
                    ee:e3:8d:27:9e:4c:88:ff:95:aa:ea:1d:3c:3b:67:
                    09:43
                Exponent: 65537 (0x10001)
        X509v3 extensions:
            X509v3 Basic Constraints: 
                CA:FALSE
            X509v3 Subject Key Identifier: 
                70:14:40:33:5D:9A:66:FE:28:5A:B5:A1:4C:A5:08:1E:3F:EC:0F:5F
            X509v3 Authority Key Identifier: 
                keyid:B1:01:AB:EC:C9:A6:04:5B:F4:0C:DC:F9:14:94:12:B4:A7:75:E4:4B
                DirName:/CN=vpn.adpss.server
                serial:98:38:E4:35:FF:6E:26:A8

            X509v3 Extended Key Usage: 
                TLS Web Server Authentication
            X509v3 Key Usage: 
                Digital Signature, Key Encipherment
            X509v3 Subject Alternative Name: 
                DNS:vpn.adpss.network
    Signature Algorithm: sha256WithRSAEncryption
         66:5f:4e:10:ab:0b:03:a2:a1:8b:9e:05:34:b6:91:e8:9f:87:
         56:20:25:59:a4:2e:b4:c1:13:ce:e3:d5:ec:e1:9d:a8:66:bf:
         d4:a3:4d:80:17:f0:69:b6:fa:23:7f:bf:2e:7e:fc:6f:24:3e:
         22:ab:33:51:19:04:41:ad:2d:f4:39:5d:bf:44:1f:61:e1:eb:
         7b:0c:10:69:bf:37:80:00:a1:96:c7:4f:88:ee:36:d8:45:0d:
         82:59:32:5d:6e:35:9a:e0:98:e7:f7:27:0b:2d:c1:36:2f:a0:
         1c:2c:e7:2f:55:49:49:1a:c2:0e:b4:a0:d9:48:34:54:13:4c:
         a9:2e:35:a4:b6:7b:ce:18:32:31:9c:dc:29:84:9d:e0:cc:24:
         9b:30:5a:ed:b5:78:1e:ae:86:0c:26:8d:c8:56:6d:fd:d0:cf:
         60:a8:53:f9:58:69:ac:7a:d7:62:e3:92:2a:8d:89:59:76:96:
         9d:f1:cc:96:03:de:a6:b4:9b:97:71:86:14:06:6d:0d:e3:12:
         fa:99:71:e2:29:ec:b8:56:f0:55:24:b5:a3:90:0b:a5:d8:bc:
         23:40:35:dd:66:b1:a8:0f:a4:7a:14:89:00:1a:82:4f:38:e2:
         f1:4f:64:5f:25:65:15:b9:93:71:e2:35:cd:a1:77:d8:ab:8e:
         34:36:62:a2
-----BEGIN CERTIFICATE-----
MIIDfTCCAmWgAwIBAgIRAPITJLgYy5yaAl4lmV2DuA8wDQYJKoZIhvcNAQELBQAw
GzEZMBcGA1UEAwwQdnBuLmFkcHNzLnNlcnZlcjAeFw0yMTAyMjIyMTIwMTZaFw0y
MzA1MjgyMTIwMTZaMBwxGjAYBgNVBAMMEXZwbi5hZHBzcy5uZXR3b3JrMIIBIjAN
BgkqhkiG9w0BAQEFAAOCAQ8AMIIBCgKCAQEAx746IpZns8nApJFZUGZCq6vBHNNl
xkduGtI2ShOj+CDuJGcFVLH5S5ir3OQEdiMNhNjKlt4NDPPOVa/AB+WM0+vNIq1h
X3IMir9opd/6TU4A+FS5/mibCRzwBr/ULFWAhRf9krvPteVNYnlt0PMluZ4fjiBk
JjZqQV1cejj9jTk29JU34ZU++ammi3erTg0wsoP4xo3slKiBIx9QeRcOR2YvZmOT
52ug1v6W5m2eCOr98aT5jR8I+cxFEC0SmZ6gNSHBJ0uw8FXlOQgGjIVPKdQnzXLa
t9QnMqXkTmQp6Y5fL05++nVPa/d7tZmNPMDu440nnkyI/5Wq6h08O2cJQwIDAQAB
o4G6MIG3MAkGA1UdEwQCMAAwHQYDVR0OBBYEFHAUQDNdmmb+KFq1oUylCB4/7A9f
MEsGA1UdIwREMEKAFLEBq+zJpgRb9Azc+RSUErSndeRLoR+kHTAbMRkwFwYDVQQD
DBB2cG4uYWRwc3Muc2VydmVyggkAmDjkNf9uJqgwEwYDVR0lBAwwCgYIKwYBBQUH
AwEwCwYDVR0PBAQDAgWgMBwGA1UdEQQVMBOCEXZwbi5hZHBzcy5uZXR3b3JrMA0G
CSqGSIb3DQEBCwUAA4IBAQBmX04QqwsDoqGLngU0tpHon4dWICVZpC60wRPO49Xs
4Z2oZr/Uo02AF/Bptvojf78ufvxvJD4iqzNRGQRBrS30OV2/RB9h4et7DBBpvzeA
AKGWx0+I7jbYRQ2CWTJdbjWa4Jjn9ycLLcE2L6AcLOcvVUlJGsIOtKDZSDRUE0yp
LjWktnvOGDIxnNwphJ3gzCSbMFrttXgeroYMJo3IVm390M9gqFP5WGmsetdi45Iq
jYlZdpad8cyWA96mtJuXcYYUBm0N4xL6mXHiKey4VvBVJLWjkAul2LwjQDXdZrGo
D6R6FIkAGoJPOOLxT2RfJWUVuZNx4jXNoXfYq440NmKi
-----END CERTIFICATE-----
